target datalayout = "e-m:e-p270:32:32-p271:32:32-p272:64:64-i64:64-i128:128-f80:128-n8:16:32:64-S128"
target triple = "x86_64-pc-linux-gnu"

; Function Attrs: inlinehint nounwind uwtable
define internal i32 @safe_add_int(i32 noundef %0, i32 noundef %1, ptr noundef %2) #6 {
  %4 = alloca i32, align 4
  %5 = alloca i32, align 4
  %6 = alloca i32, align 4
  %7 = alloca ptr, align 8
  %8 = alloca i32, align 4
  %9 = alloca i32, align 4
  store i32 %0, ptr %5, align 4, !tbaa !29
  store i32 %1, ptr %6, align 4, !tbaa !29
  store ptr %2, ptr %7, align 8, !tbaa !66
  call void @llvm.lifetime.start.p0(i64 4, ptr %8) #9
  %10 = load i32, ptr %5, align 4, !tbaa !29
  %11 = load i32, ptr %6, align 4, !tbaa !29
  %12 = call { i32, i1 } @llvm.sadd.with.overflow.i32(i32 %10, i32 %11)
  %13 = extractvalue { i32, i1 } %12, 1
  %14 = extractvalue { i32, i1 } %12, 0
  store i32 %14, ptr %8, align 4
  br i1 %13, label %17, label %15

15:                                               ; preds = %3
  %16 = load i32, ptr %8, align 4, !tbaa !29
  store i32 %16, ptr %4, align 4
  store i32 1, ptr %9, align 4
  br label %24

17:                                               ; preds = %3
  %18 = load ptr, ptr %7, align 8, !tbaa !66
  %19 = load i32, ptr %18, align 4, !tbaa !29
  %20 = or i32 %19, 1
  store i32 %20, ptr %18, align 4, !tbaa !29
  %21 = load i32, ptr %5, align 4, !tbaa !29
  %22 = icmp slt i32 %21, 0
  %23 = select i1 %22, i32 -2147483648, i32 2147483647
  store i32 %23, ptr %4, align 4
  store i32 1, ptr %9, align 4
  br label %24

24:                                               ; preds = %17, %15
  call void @llvm.lifetime.end.p0(i64 4, ptr %8) #9
  %25 = load i32, ptr %4, align 4
  ret i32 %25
}

; Function Attrs: inlinehint nounwind uwtable
define internal i32 @safe_div_int(i32 noundef %0, i32 noundef %1, ptr noundef %2) #6 {
  %4 = alloca i32, align 4
  %5 = alloca i32, align 4
  %6 = alloca i32, align 4
  %7 = alloca ptr, align 8
  store i32 %0, ptr %5, align 4, !tbaa !29
  store i32 %1, ptr %6, align 4, !tbaa !29
  store ptr %2, ptr %7, align 8, !tbaa !66
  %8 = load i32, ptr %6, align 4, !tbaa !29
  %9 = icmp eq i32 %8, 0
  br i1 %9, label %10, label %17

10:                                               ; preds = %3
  %11 = load ptr, ptr %7, align 8, !tbaa !66
  %12 = load i32, ptr %11, align 4, !tbaa !29
  %13 = or i32 %12, 1
  store i32 %13, ptr %11, align 4, !tbaa !29
  %14 = load i32, ptr %5, align 4, !tbaa !29
  %15 = icmp slt i32 %14, 0
  %16 = select i1 %15, i32 -2147483648, i32 2147483647
  store i32 %16, ptr %4, align 4
  br label %31

17:                                               ; preds = %3
  %18 = load i32, ptr %6, align 4, !tbaa !29
  %19 = icmp eq i32 %18, -1
  br i1 %19, label %20, label %27

20:                                               ; preds = %17
  %21 = load i32, ptr %5, align 4, !tbaa !29
  %22 = icmp eq i32 %21, -2147483648
  br i1 %22, label %23, label %27

23:                                               ; preds = %20
  %24 = load ptr, ptr %7, align 8, !tbaa !66
  %25 = load i32, ptr %24, align 4, !tbaa !29
  %26 = or i32 %25, 1
  store i32 %26, ptr %24, align 4, !tbaa !29
  store i32 2147483647, ptr %4, align 4
  br label %31

27:                                               ; preds = %20, %17
  %28 = load i32, ptr %5, align 4, !tbaa !29
  %29 = load i32, ptr %6, align 4, !tbaa !29
  %30 = sdiv i32 %28, %29
  store i32 %30, ptr %4, align 4
  br label %31

31:                                               ; preds = %27, %23, %10
  %32 = load i32, ptr %4, align 4
  ret i32 %32
}

; Function Attrs: inlinehint nounwind uwtable
define internal i32 @safe_mod_int(i32 noundef %0, i32 noundef %1, ptr noundef %2) #6 {
  %4 = alloca i32, align 4
  %5 = alloca i32, align 4
  %6 = alloca i32, align 4
  %7 = alloca ptr, align 8
  store i32 %0, ptr %5, align 4, !tbaa !29
  store i32 %1, ptr %6, align 4, !tbaa !29
  store ptr %2, ptr %7, align 8, !tbaa !66
  %8 = load i32, ptr %6, align 4, !tbaa !29
  %9 = icmp eq i32 %8, 0
  br i1 %9, label %10, label %14

10:                                               ; preds = %3
  %11 = load ptr, ptr %7, align 8, !tbaa !66
  %12 = load i32, ptr %11, align 4, !tbaa !29
  %13 = or i32 %12, 1
  store i32 %13, ptr %11, align 4, !tbaa !29
  store i32 0, ptr %4, align 4
  br label %28

14:                                               ; preds = %3
  %15 = load i32, ptr %6, align 4, !tbaa !29
  %16 = icmp eq i32 %15, -1
  br i1 %16, label %17, label %24

17:                                               ; preds = %14
  %18 = load i32, ptr %5, align 4, !tbaa !29
  %19 = icmp eq i32 %18, -2147483648
  br i1 %19, label %20, label %24

20:                                               ; preds = %17
  %21 = load ptr, ptr %7, align 8, !tbaa !66
  %22 = load i32, ptr %21, align 4, !tbaa !29
  %23 = or i32 %22, 1
  store i32 %23, ptr %21, align 4, !tbaa !29
  store i32 2147483647, ptr %4, align 4
  br label %28

24:                                               ; preds = %17, %14
  %25 = load i32, ptr %5, align 4, !tbaa !29
  %26 = load i32, ptr %6, align 4, !tbaa !29
  %27 = srem i32 %25, %26
  store i32 %27, ptr %4, align 4
  br label %28

28:                                               ; preds = %24, %20, %10
  %29 = load i32, ptr %4, align 4
  ret i32 %29
}

; Function Attrs: inlinehint nounwind uwtable
define internal i32 @safe_div_round_up_int(i32 noundef %0, i32 noundef %1, ptr noundef %2) #6 {
  %4 = alloca i32, align 4
  %5 = alloca i32, align 4
  %6 = alloca i32, align 4
  %7 = alloca ptr, align 8
  %8 = alloca i32, align 4
  %9 = alloca ptr, align 8
  %10 = alloca i32, align 4
  %11 = alloca i32, align 4
  store i32 %0, ptr %5, align 4, !tbaa !29
  store i32 %1, ptr %6, align 4, !tbaa !29
  store ptr %2, ptr %7, align 8, !tbaa !66
  call void @llvm.lifetime.start.p0(i64 4, ptr %8) #9
  call void @llvm.lifetime.start.p0(i64 8, ptr %9) #9
  call void @llvm.lifetime.start.p0(i64 4, ptr %10) #9
  store i32 0, ptr %10, align 4, !tbaa !29
  %12 = load ptr, ptr %7, align 8, !tbaa !66
  %13 = icmp ne ptr %12, null
  br i1 %13, label %14, label %16

14:                                               ; preds = %3
  %15 = load ptr, ptr %7, align 8, !tbaa !66
  br label %17

16:                                               ; preds = %3
  br label %17

17:                                               ; preds = %16, %14
  %18 = phi ptr [ %15, %14 ], [ %10, %16 ]
  store ptr %18, ptr %9, align 8, !tbaa !66
  %19 = load i32, ptr %6, align 4, !tbaa !29
  %20 = icmp sgt i32 %19, 0
  br i1 %20, label %21, label %46

21:                                               ; preds = %17
  %22 = load i32, ptr %5, align 4, !tbaa !29
  %23 = icmp sgt i32 %22, 0
  br i1 %23, label %24, label %46

24:                                               ; preds = %21
  %25 = load i32, ptr %5, align 4, !tbaa !29
  %26 = load i32, ptr %6, align 4, !tbaa !29
  %27 = sub nsw i32 2147483647, %26
  %28 = icmp slt i32 %25, %27
  br i1 %28, label %29, label %36

29:                                               ; preds = %24
  %30 = load i32, ptr %5, align 4, !tbaa !29
  %31 = load i32, ptr %6, align 4, !tbaa !29
  %32 = add nsw i32 %30, %31
  %33 = sub nsw i32 %32, 1
  %34 = load i32, ptr %6, align 4, !tbaa !29
  %35 = sdiv i32 %33, %34
  store i32 %35, ptr %4, align 4
  store i32 1, ptr %11, align 4
  br label %74

36:                                               ; preds = %24
  %37 = load i32, ptr %5, align 4, !tbaa !29
  %38 = load i32, ptr %6, align 4, !tbaa !29
  %39 = sdiv i32 %37, %38
  %40 = load i32, ptr %5, align 4, !tbaa !29
  %41 = load i32, ptr %6, align 4, !tbaa !29
  %42 = srem i32 %40, %41
  %43 = icmp ne i32 %42, 0
  %44 = zext i1 %43 to i32
  %45 = add nsw i32 %39, %44
  store i32 %45, ptr %4, align 4
  store i32 1, ptr %11, align 4
  br label %74

46:                                               ; preds = %21, %17
  %47 = load i32, ptr %6, align 4, !tbaa !29
  %48 = icmp eq i32 %47, 0
  br i1 %48, label %49, label %56

49:                                               ; preds = %46
  %50 = load ptr, ptr %9, align 8, !tbaa !66
  %51 = load i32, ptr %50, align 4, !tbaa !29
  %52 = or i32 %51, 1
  store i32 %52, ptr %50, align 4, !tbaa !29
  %53 = load i32, ptr %5, align 4, !tbaa !29
  %54 = icmp eq i32 %53, 0
  %55 = select i1 %54, i32 0, i32 2147483647
  store i32 %55, ptr %4, align 4
  store i32 1, ptr %11, align 4
  br label %74

56:                                               ; preds = %46
  %57 = load i32, ptr %5, align 4, !tbaa !29
  %58 = icmp eq i32 %57, 0
  br i1 %58, label %59, label %60

59:                                               ; preds = %56
  store i32 0, ptr %4, align 4
  store i32 1, ptr %11, align 4
  br label %74

60:                                               ; preds = %56
  %61 = load i32, ptr %5, align 4, !tbaa !29
  %62 = load i32, ptr %6, align 4, !tbaa !29
  %63 = load ptr, ptr %9, align 8, !tbaa !66
  %64 = call i32 @safe_mod_int(i32 noundef %61, i32 noundef %62, ptr noundef %63)
  store i32 %64, ptr %8, align 4, !tbaa !29
  %65 = load i32, ptr %5, align 4, !tbaa !29
  %66 = load i32, ptr %6, align 4, !tbaa !29
  %67 = load ptr, ptr %9, align 8, !tbaa !66
  %68 = call i32 @safe_div_int(i32 noundef %65, i32 noundef %66, ptr noundef %67)
  %69 = load i32, ptr %8, align 4, !tbaa !29
  %70 = icmp ne i32 %69, 0
  %71 = zext i1 %70 to i32
  %72 = load ptr, ptr %9, align 8, !tbaa !66
  %73 = call i32 @safe_add_int(i32 noundef %68, i32 noundef %71, ptr noundef %72)
  store i32 %73, ptr %4, align 4
  store i32 1, ptr %11, align 4
  br label %74

74:                                               ; preds = %60, %59, %49, %36, %29
  call void @llvm.lifetime.end.p0(i64 4, ptr %10) #9
  call void @llvm.lifetime.end.p0(i64 8, ptr %9) #9
  call void @llvm.lifetime.end.p0(i64 4, ptr %8) #9
  %75 = load i32, ptr %4, align 4
  ret i32 %75
}