; Function Attrs: inlinehint mustprogress nofree norecurse nosync nounwind willreturn memory(none) uwtable
define internal fastcc range(i32 -268435456, 268435457) i32 @safe_div_round_up_int(i32 noundef %0) unnamed_addr #6 {
  %2 = icmp sgt i32 %0, 0
  br i1 %2, label %3, label %14

3:                                                ; preds = %1
  %4 = icmp samesign ult i32 %0, 2147483639
  br i1 %4, label %5, label %8

5:                                                ; preds = %3
  %6 = add nuw nsw i32 %0, 7
  %7 = lshr i32 %6, 3
  br label %22

8:                                                ; preds = %3
  %9 = lshr i32 %0, 3
  %10 = and i32 %0, 7
  %11 = icmp ne i32 %10, 0
  %12 = zext i1 %11 to i32
  %13 = add nuw nsw i32 %9, %12
  br label %22

14:                                               ; preds = %1
  %15 = icmp eq i32 %0, 0
  br i1 %15, label %22, label %16

16:                                               ; preds = %14
  %.nonneg = sub i32 0, %0
  %17 = and i32 %.nonneg, 7
  %18 = lshr i32 %.nonneg, 3
  %19 = icmp ne i32 %17, 0
  %20 = zext i1 %19 to i32
  %21 = sub nsw i32 %20, %18
  br label %22

22:                                               ; preds = %14, %16, %8, %5
  %.0 = phi i32 [ %7, %5 ], [ %13, %8 ], [ %21, %16 ], [ 0, %14 ]
  ret i32 %.0
}